(dp1
S'output'
p2
S"<type 'exceptions.AttributeError'> 'DAL' object has no attribute 'Cook_Book'"
p3
sS'layer'
p4
S'/home/vidit/sem2/itws/project/web2py/applications/Campus_Store/controllers/default.py'
p5
sS'code'
p6
S'# -*- coding: utf-8 -*-\n# this file is released under public domain and you can use without limitations\n\n#########################################################################\n## This is a sample controller\n## - index is the default action of any application\n## - user is required for authentication and authorization\n## - download is for downloading files uploaded in the db (does streaming)\n#########################################################################\n@auth.requires_login()\ndef index():\n    response.flash = T("Welcom to Our Store!")\n    if len(request.args): page=int(request.args[0])\n    else : page=0\n    item=50\n    limitby=(page*item,(page+1)*(item+1))\n    rows = db(db.item).select(limitby=limitby,orderby=~db.Cook_Book.created_on)\n    return locals()\n\n@auth.requires_login()\ndef shop():\n    form = SQLFORM(db.item).process()\n    if form.accepted: redirect(URL(\'index\'))\n    return locals()\n\n\ndef user():\n    """\n    exposes:\n    http://..../[app]/default/user/login\n    http://..../[app]/default/user/logout\n    http://..../[app]/default/user/register\n    http://..../[app]/default/user/profile\n    http://..../[app]/default/user/retrieve_password\n    http://..../[app]/default/user/change_password\n    http://..../[app]/default/user/bulk_register\n    use @auth.requires_login()\n        @auth.requires_membership(\'group name\')\n        @auth.requires_permission(\'read\',\'table name\',record_id)\n    to decorate functions that need access control\n    also notice there is http://..../[app]/appadmin/manage/auth to allow administrator to manage users\n    """\n    return dict(form=auth())\n\n\n@cache.action()\ndef download():\n    """\n    allows downloading of uploaded files\n    http://..../[app]/default/download/[filename]\n    """\n    return response.download(request, db)\n\n\ndef call():\n    """\n    exposes services. for example:\n    http://..../[app]/default/call/jsonrpc\n    decorate with @services.jsonrpc the functions to expose\n    supports xml, json, xmlrpc, jsonrpc, amfrpc, rss, csv\n    """\n    return service()\n\nresponse._vars=response._caller(index)\n'
p7
sS'snapshot'
p8
(dp9
sS'traceback'
p10
S'Traceback (most recent call last):\n  File "/home/vidit/sem2/itws/project/web2py/gluon/restricted.py", line 227, in restricted\n    exec ccode in environment\n  File "/home/vidit/sem2/itws/project/web2py/applications/Campus_Store/controllers/default.py", line 64, in <module>\n  File "/home/vidit/sem2/itws/project/web2py/gluon/globals.py", line 412, in <lambda>\n    self._caller = lambda f: f()\n  File "/home/vidit/sem2/itws/project/web2py/gluon/tools.py", line 4236, in f\n    return action(*a, **b)\n  File "/home/vidit/sem2/itws/project/web2py/applications/Campus_Store/controllers/default.py", line 17, in index\n    rows = db(db.item).select(limitby=limitby,orderby=~db.Cook_Book.created_on)\n  File "/home/vidit/sem2/itws/project/web2py/gluon/packages/dal/pydal/base.py", line 921, in __getattr__\n    return BasicStorage.__getattribute__(self, key)\nAttributeError: \'DAL\' object has no attribute \'Cook_Book\'\n'
p11
s.